; Function Attrs: mustprogress uwtable
define dso_local void @_ZN4absl24synchronization_internal9SemWaiterC2Ev(ptr noundef nonnull align 8 dereferenceable(36) initializes((32, 36)) %0) unnamed_addr #0 align 2 {
  %2 = getelementptr inbounds nuw i8, ptr %0, i64 32
  store i32 0, ptr %2, align 8, !tbaa !4
  %3 = tail call i32 @sem_init(ptr noundef nonnull %0, i32 noundef 0, i32 noundef 0) #5
  %.not = icmp eq i32 %3, 0
  br i1 %.not, label %7, label %4

4:                                                ; preds = %1
  %5 = tail call ptr @__errno_location() #6
  %6 = load i32, ptr %5, align 4, !tbaa !9
  tail call void (i32, ptr, i32, ptr, ...) @_ZN4absl16raw_log_internal6RawLogENS_11LogSeverityEPKciS3_z(i32 noundef 3, ptr noundef nonnull getelementptr inbounds nuw (i8, ptr @.str, i64 129), i32 noundef 42, ptr noundef nonnull @.str.1, i32 noundef %6)
  unreachable

7:                                                ; preds = %1
  ret void
}